; Function Attrs: mustprogress uwtable
define void @_ZN3gmx35AnalysisDataWeightedHistogramModule4initERKNS_25AnalysisHistogramSettingsE(ptr nocapture noundef nonnull readonly align 8 dereferenceable(32) %0, ptr nocapture noundef nonnull readonly align 4 dereferenceable(21) %1) local_unnamed_addr #3 align 2 {
  %3 = getelementptr inbounds i8, ptr %0, i64 24
  %4 = load ptr, ptr %3, align 8
  %5 = getelementptr inbounds i8, ptr %4, i64 16
  tail call void @llvm.memcpy.p0.p0.i64(ptr noundef nonnull align 8 dereferenceable(21) %5, ptr noundef nonnull align 4 dereferenceable(21) %1, i64 21, i1 false)
  %6 = getelementptr inbounds i8, ptr %4, i64 40
  %7 = load ptr, ptr %6, align 8
  %8 = getelementptr inbounds i8, ptr %7, i64 96
  tail call void @llvm.memcpy.p0.p0.i64(ptr noundef nonnull align 8 dereferenceable(21) %8, ptr noundef nonnull align 4 dereferenceable(21) %1, i64 21, i1 false)
  %9 = getelementptr inbounds i8, ptr %1, i64 16
  %10 = load i32, ptr %9, align 4
  tail call void @_ZN3gmx25AbstractAnalysisArrayData11setRowCountEi(ptr noundef nonnull align 8 dereferenceable(94) %7, i32 noundef %10)
  %11 = load float, ptr %1, align 4
  %12 = fpext float %11 to double
  %13 = getelementptr inbounds i8, ptr %1, i64 8
  %14 = load float, ptr %13, align 4
  %15 = fpext float %14 to double
  %16 = tail call double @llvm.fmuladd.f64(double %15, double 5.000000e-01, double %12)
  %17 = fptrunc double %16 to float
  tail call void @_ZN3gmx25AbstractAnalysisArrayData8setXAxisEff(ptr noundef nonnull align 8 dereferenceable(94) %7, float noundef %17, float noundef %14)
  ret void
}